target datalayout = "e-m:e-p270:32:32-p271:32:32-p272:64:64-i64:64-i128:128-f80:128-n8:16:32:64-S128"
target triple = "x86_64-pc-linux-gnu"

%struct.TupleTableSlotOps = type { i64, ptr, ptr, ptr, ptr, ptr, ptr, ptr, ptr, ptr, ptr, ptr, ptr }
%struct.ForEachState = type { ptr, i32 }
%struct.ProjectSetState = type { %struct.PlanState, ptr, ptr, i32, i8, ptr }
%struct.PlanState = type { i32, ptr, ptr, ptr, ptr, ptr, ptr, ptr, ptr, ptr, ptr, ptr, ptr, ptr, ptr, ptr, ptr, ptr, i8, ptr, ptr, ptr, ptr, ptr, i8, i8, i8, i8, i8, i8, i8, i8 }
%struct.Plan = type { i32, i32, double, double, double, i32, i8, i8, i8, i32, ptr, ptr, ptr, ptr, ptr, ptr, ptr }
%struct.ProjectSet = type { %struct.Plan }
%struct.List = type { i32, i32, i32, ptr, [0 x %union.ListCell] }
%union.ListCell = type { ptr }
%struct.TargetEntry = type { %struct.Expr, ptr, i16, ptr, i32, i32, i16, i8 }
%struct.Expr = type { i32 }
%struct.Node = type { i32 }
%struct.FuncExpr = type { %struct.Expr, i32, i32, i8, i8, i32, i32, i32, ptr, i32 }
%struct.OpExpr = type { %struct.Expr, i32, i32, i32, i8, i32, i32, ptr, i32 }

@TTSOpsVirtual = external constant %struct.TupleTableSlotOps, align 8
@CurrentMemoryContext = external global ptr, align 8
@.str = private unnamed_addr constant [24 x i8] c"tSRF function arguments\00", align 1

; Function Attrs: inlinehint nounwind uwtable
define internal i32 @list_length(ptr noundef %0) #2 {
  %2 = alloca ptr, align 8
  store ptr %0, ptr %2, align 8
  %3 = load ptr, ptr %2, align 8
  %4 = icmp ne ptr %3, null
  br i1 %4, label %5, label %9

5:                                                ; preds = %1
  %6 = load ptr, ptr %2, align 8
  %7 = getelementptr inbounds nuw %struct.List, ptr %6, i32 0, i32 1
  %8 = load i32, ptr %7, align 4
  br label %10

9:                                                ; preds = %1
  br label %10

10:                                               ; preds = %9, %5
  %11 = phi i32 [ %8, %5 ], [ 0, %9 ]
  ret i32 %11
}

; Function Attrs: inlinehint nounwind uwtable
define internal ptr @newNode(i64 noundef %0, i32 noundef %1) #2 {
  %3 = alloca i64, align 8
  %4 = alloca i32, align 4
  %5 = alloca ptr, align 8
  store i64 %0, ptr %3, align 8
  store i32 %1, ptr %4, align 4
  call void @llvm.lifetime.start.p0(i64 8, ptr %5) #6
  %6 = load i64, ptr %3, align 8
  %7 = call ptr @palloc0(i64 noundef %6)
  store ptr %7, ptr %5, align 8
  %8 = load i32, ptr %4, align 4
  %9 = load ptr, ptr %5, align 8
  %10 = getelementptr inbounds nuw %struct.Node, ptr %9, i32 0, i32 0
  store i32 %8, ptr %10, align 4
  %11 = load ptr, ptr %5, align 8
  call void @llvm.lifetime.end.p0(i64 8, ptr %5) #6
  ret ptr %11
}

; Function Attrs: nounwind uwtable
define dso_local ptr @ExecInitProjectSet(ptr noundef %0, ptr noundef %1, i32 noundef %2) #0 {
  %4 = alloca ptr, align 8
  %5 = alloca ptr, align 8
  %6 = alloca i32, align 4
  %7 = alloca ptr, align 8
  %8 = alloca ptr, align 8
  %9 = alloca i32, align 4
  %10 = alloca %struct.ForEachState, align 8
  %11 = alloca ptr, align 8
  %12 = alloca ptr, align 8
  %13 = alloca i32, align 4
  store ptr %0, ptr %4, align 8
  store ptr %1, ptr %5, align 8
  store i32 %2, ptr %6, align 4
  call void @llvm.lifetime.start.p0(i64 8, ptr %7) #6
  call void @llvm.lifetime.start.p0(i64 8, ptr %8) #6
  call void @llvm.lifetime.start.p0(i64 4, ptr %9) #6
  %14 = call ptr @newNode(i64 noundef 232, i32 noundef 394)
  store ptr %14, ptr %7, align 8
  %15 = load ptr, ptr %4, align 8
  %16 = load ptr, ptr %7, align 8
  %17 = getelementptr inbounds nuw %struct.ProjectSetState, ptr %16, i32 0, i32 0
  %18 = getelementptr inbounds nuw %struct.PlanState, ptr %17, i32 0, i32 1
  store ptr %15, ptr %18, align 8
  %19 = load ptr, ptr %5, align 8
  %20 = load ptr, ptr %7, align 8
  %21 = getelementptr inbounds nuw %struct.ProjectSetState, ptr %20, i32 0, i32 0
  %22 = getelementptr inbounds nuw %struct.PlanState, ptr %21, i32 0, i32 2
  store ptr %19, ptr %22, align 8
  %23 = load ptr, ptr %7, align 8
  %24 = getelementptr inbounds nuw %struct.ProjectSetState, ptr %23, i32 0, i32 0
  %25 = getelementptr inbounds nuw %struct.PlanState, ptr %24, i32 0, i32 3
  store ptr @ExecProjectSet, ptr %25, align 8
  %26 = load ptr, ptr %7, align 8
  %27 = getelementptr inbounds nuw %struct.ProjectSetState, ptr %26, i32 0, i32 4
  store i8 0, ptr %27, align 4
  %28 = load ptr, ptr %5, align 8
  %29 = load ptr, ptr %7, align 8
  %30 = getelementptr inbounds nuw %struct.ProjectSetState, ptr %29, i32 0, i32 0
  call void @ExecAssignExprContext(ptr noundef %28, ptr noundef %30)
  %31 = load ptr, ptr %4, align 8
  %32 = getelementptr inbounds nuw %struct.Plan, ptr %31, i32 0, i32 12
  %33 = load ptr, ptr %32, align 8
  %34 = load ptr, ptr %5, align 8
  %35 = load i32, ptr %6, align 4
  %36 = call ptr @ExecInitNode(ptr noundef %33, ptr noundef %34, i32 noundef %35)
  %37 = load ptr, ptr %7, align 8
  %38 = getelementptr inbounds nuw %struct.PlanState, ptr %37, i32 0, i32 9
  store ptr %36, ptr %38, align 8
  %39 = load ptr, ptr %7, align 8
  %40 = getelementptr inbounds nuw %struct.ProjectSetState, ptr %39, i32 0, i32 0
  call void @ExecInitResultTupleSlotTL(ptr noundef %40, ptr noundef @TTSOpsVirtual)
  %41 = load ptr, ptr %4, align 8
  %42 = getelementptr inbounds nuw %struct.ProjectSet, ptr %41, i32 0, i32 0
  %43 = getelementptr inbounds nuw %struct.Plan, ptr %42, i32 0, i32 10
  %44 = load ptr, ptr %43, align 8
  %45 = call i32 @list_length(ptr noundef %44)
  %46 = load ptr, ptr %7, align 8
  %47 = getelementptr inbounds nuw %struct.ProjectSetState, ptr %46, i32 0, i32 3
  store i32 %45, ptr %47, align 8
  %48 = load ptr, ptr %7, align 8
  %49 = getelementptr inbounds nuw %struct.ProjectSetState, ptr %48, i32 0, i32 3
  %50 = load i32, ptr %49, align 8
  %51 = sext i32 %50 to i64
  %52 = mul i64 8, %51
  %53 = call ptr @palloc(i64 noundef %52)
  %54 = load ptr, ptr %7, align 8
  %55 = getelementptr inbounds nuw %struct.ProjectSetState, ptr %54, i32 0, i32 1
  store ptr %53, ptr %55, align 8
  %56 = load ptr, ptr %7, align 8
  %57 = getelementptr inbounds nuw %struct.ProjectSetState, ptr %56, i32 0, i32 3
  %58 = load i32, ptr %57, align 8
  %59 = sext i32 %58 to i64
  %60 = mul i64 4, %59
  %61 = call ptr @palloc(i64 noundef %60)
  %62 = load ptr, ptr %7, align 8
  %63 = getelementptr inbounds nuw %struct.ProjectSetState, ptr %62, i32 0, i32 2
  store ptr %61, ptr %63, align 8
  store i32 0, ptr %9, align 4
  call void @llvm.lifetime.start.p0(i64 16, ptr %10) #6
  %64 = getelementptr inbounds nuw %struct.ForEachState, ptr %10, i32 0, i32 0
  %65 = load ptr, ptr %4, align 8
  %66 = getelementptr inbounds nuw %struct.ProjectSet, ptr %65, i32 0, i32 0
  %67 = getelementptr inbounds nuw %struct.Plan, ptr %66, i32 0, i32 10
  %68 = load ptr, ptr %67, align 8
  store ptr %68, ptr %64, align 8
  %69 = getelementptr inbounds nuw %struct.ForEachState, ptr %10, i32 0, i32 1
  store i32 0, ptr %69, align 8
  %70 = getelementptr i8, ptr %10, i64 12
  call void @llvm.memset.p0.i64(ptr align 4 %70, i8 0, i64 4, i1 false)
  br label %71

71:                                               ; preds = %151, %3
  %72 = getelementptr inbounds nuw %struct.ForEachState, ptr %10, i32 0, i32 0
  %73 = load ptr, ptr %72, align 8
  %74 = icmp ne ptr %73, null
  br i1 %74, label %75, label %92

75:                                               ; preds = %71
  %76 = getelementptr inbounds nuw %struct.ForEachState, ptr %10, i32 0, i32 1
  %77 = load i32, ptr %76, align 8
  %78 = getelementptr inbounds nuw %struct.ForEachState, ptr %10, i32 0, i32 0
  %79 = load ptr, ptr %78, align 8
  %80 = getelementptr inbounds nuw %struct.List, ptr %79, i32 0, i32 1
  %81 = load i32, ptr %80, align 4
  %82 = icmp slt i32 %77, %81
  br i1 %82, label %83, label %92

83:                                               ; preds = %75
  %84 = getelementptr inbounds nuw %struct.ForEachState, ptr %10, i32 0, i32 0
  %85 = load ptr, ptr %84, align 8
  %86 = getelementptr inbounds nuw %struct.List, ptr %85, i32 0, i32 3
  %87 = load ptr, ptr %86, align 8
  %88 = getelementptr inbounds nuw %struct.ForEachState, ptr %10, i32 0, i32 1
  %89 = load i32, ptr %88, align 8
  %90 = sext i32 %89 to i64
  %91 = getelementptr inbounds %union.ListCell, ptr %87, i64 %90
  store ptr %91, ptr %8, align 8
  br label %93

92:                                               ; preds = %75, %71
  store ptr null, ptr %8, align 8
  br label %93

93:                                               ; preds = %92, %83
  %94 = phi i32 [ 1, %83 ], [ 0, %92 ]
  %95 = icmp ne i32 %94, 0
  br i1 %95, label %97, label %96

96:                                               ; preds = %93
  call void @llvm.lifetime.end.p0(i64 16, ptr %10) #6
  br label %155

97:                                               ; preds = %93
  call void @llvm.lifetime.start.p0(i64 8, ptr %11) #6
  %98 = load ptr, ptr %8, align 8
  %99 = load ptr, ptr %98, align 8
  store ptr %99, ptr %11, align 8
  call void @llvm.lifetime.start.p0(i64 8, ptr %12) #6
  %100 = load ptr, ptr %11, align 8
  %101 = getelementptr inbounds nuw %struct.TargetEntry, ptr %100, i32 0, i32 1
  %102 = load ptr, ptr %101, align 8
  store ptr %102, ptr %12, align 8
  %103 = load ptr, ptr %12, align 8
  %104 = getelementptr inbounds nuw %struct.Node, ptr %103, i32 0, i32 0
  %105 = load i32, ptr %104, align 4
  %106 = icmp eq i32 %105, 15
  br i1 %106, label %107, label %112

107:                                              ; preds = %97
  %108 = load ptr, ptr %12, align 8
  %109 = getelementptr inbounds nuw %struct.FuncExpr, ptr %108, i32 0, i32 3
  %110 = load i8, ptr %109, align 4, !range !4, !noundef !5
  %111 = trunc i8 %110 to i1
  br i1 %111, label %122, label %112

112:                                              ; preds = %107, %97
  %113 = load ptr, ptr %12, align 8
  %114 = getelementptr inbounds nuw %struct.Node, ptr %113, i32 0, i32 0
  %115 = load i32, ptr %114, align 4
  %116 = icmp eq i32 %115, 17
  br i1 %116, label %117, label %137

117:                                              ; preds = %112
  %118 = load ptr, ptr %12, align 8
  %119 = getelementptr inbounds nuw %struct.OpExpr, ptr %118, i32 0, i32 4
  %120 = load i8, ptr %119, align 8, !range !4, !noundef !5
  %121 = trunc i8 %120 to i1
  br i1 %121, label %122, label %137

122:                                              ; preds = %117, %107
  %123 = load ptr, ptr %12, align 8
  %124 = load ptr, ptr %7, align 8
  %125 = getelementptr inbounds nuw %struct.ProjectSetState, ptr %124, i32 0, i32 0
  %126 = getelementptr inbounds nuw %struct.PlanState, ptr %125, i32 0, i32 16
  %127 = load ptr, ptr %126, align 8
  %128 = load ptr, ptr %7, align 8
  %129 = getelementptr inbounds nuw %struct.ProjectSetState, ptr %128, i32 0, i32 0
  %130 = call ptr @ExecInitFunctionResultSet(ptr noundef %123, ptr noundef %127, ptr noundef %129)
  %131 = load ptr, ptr %7, align 8
  %132 = getelementptr inbounds nuw %struct.ProjectSetState, ptr %131, i32 0, i32 1
  %133 = load ptr, ptr %132, align 8
  %134 = load i32, ptr %9, align 4
  %135 = sext i32 %134 to i64
  %136 = getelementptr inbounds ptr, ptr %133, i64 %135
  store ptr %130, ptr %136, align 8
  br label %148

137:                                              ; preds = %117, %112
  %138 = load ptr, ptr %12, align 8
  %139 = load ptr, ptr %7, align 8
  %140 = getelementptr inbounds nuw %struct.ProjectSetState, ptr %139, i32 0, i32 0
  %141 = call ptr @ExecInitExpr(ptr noundef %138, ptr noundef %140)
  %142 = load ptr, ptr %7, align 8
  %143 = getelementptr inbounds nuw %struct.ProjectSetState, ptr %142, i32 0, i32 1
  %144 = load ptr, ptr %143, align 8
  %145 = load i32, ptr %9, align 4
  %146 = sext i32 %145 to i64
  %147 = getelementptr inbounds ptr, ptr %144, i64 %146
  store ptr %141, ptr %147, align 8
  br label %148

148:                                              ; preds = %137, %122
  %149 = load i32, ptr %9, align 4
  %150 = add i32 %149, 1
  store i32 %150, ptr %9, align 4
  call void @llvm.lifetime.end.p0(i64 8, ptr %12) #6
  call void @llvm.lifetime.end.p0(i64 8, ptr %11) #6
  br label %151

151:                                              ; preds = %148
  %152 = getelementptr inbounds nuw %struct.ForEachState, ptr %10, i32 0, i32 1
  %153 = load i32, ptr %152, align 8
  %154 = add i32 %153, 1
  store i32 %154, ptr %152, align 8
  br label %71, !llvm.loop !6

155:                                              ; preds = %96
  br label %156

156:                                              ; preds = %155
  br label %157

157:                                              ; preds = %156
  br label %158

158:                                              ; preds = %157
  store i32 1, ptr %13, align 4
  %159 = load ptr, ptr @CurrentMemoryContext, align 8
  %160 = call ptr @AllocSetContextCreateInternal(ptr noundef %159, ptr noundef @.str, i64 noundef 0, i64 noundef 8192, i64 noundef 8388608)
  %161 = load ptr, ptr %7, align 8
  %162 = getelementptr inbounds nuw %struct.ProjectSetState, ptr %161, i32 0, i32 5
  store ptr %160, ptr %162, align 8
  %163 = load ptr, ptr %7, align 8
  call void @llvm.lifetime.end.p0(i64 4, ptr %9) #6
  call void @llvm.lifetime.end.p0(i64 8, ptr %8) #6
  call void @llvm.lifetime.end.p0(i64 8, ptr %7) #6
  ret ptr %163
}