; Function Attrs: nounwind uwtable
define dso_local noundef ptr @ExecInitProjectSet(ptr noundef %0, ptr noundef %1, i32 noundef %2) local_unnamed_addr #0 {
  %4 = tail call noundef ptr @palloc0(i64 noundef 232) #2
  store i32 394, ptr %4, align 4
  %5 = getelementptr inbounds nuw i8, ptr %4, i64 8
  store ptr %0, ptr %5, align 8
  %6 = getelementptr inbounds nuw i8, ptr %4, i64 16
  store ptr %1, ptr %6, align 8
  %7 = getelementptr inbounds nuw i8, ptr %4, i64 24
  store ptr @ExecProjectSet, ptr %7, align 8
  %8 = getelementptr inbounds nuw i8, ptr %4, i64 220
  store i8 0, ptr %8, align 4
  tail call void @ExecAssignExprContext(ptr noundef %1, ptr noundef nonnull %4) #2
  %9 = getelementptr inbounds nuw i8, ptr %0, i64 64
  %10 = load ptr, ptr %9, align 8
  %11 = tail call ptr @ExecInitNode(ptr noundef %10, ptr noundef %1, i32 noundef %2) #2
  %12 = getelementptr inbounds nuw i8, ptr %4, i64 72
  store ptr %11, ptr %12, align 8
  tail call void @ExecInitResultTupleSlotTL(ptr noundef nonnull %4, ptr noundef nonnull @TTSOpsVirtual) #2
  %13 = getelementptr inbounds nuw i8, ptr %0, i64 48
  %14 = load ptr, ptr %13, align 8
  %.not.i = icmp eq ptr %14, null
  br i1 %.not.i, label %list_length.exit, label %15

15:                                               ; preds = %3
  %16 = getelementptr inbounds nuw i8, ptr %14, i64 4
  %17 = load i32, ptr %16, align 4
  br label %list_length.exit

list_length.exit:                                 ; preds = %3, %15
  %18 = phi i32 [ %17, %15 ], [ 0, %3 ]
  %19 = getelementptr inbounds nuw i8, ptr %4, i64 216
  store i32 %18, ptr %19, align 8
  %20 = sext i32 %18 to i64
  %21 = shl nsw i64 %20, 3
  %22 = tail call ptr @palloc(i64 noundef %21) #2
  %23 = getelementptr inbounds nuw i8, ptr %4, i64 200
  store ptr %22, ptr %23, align 8
  %24 = load i32, ptr %19, align 8
  %25 = sext i32 %24 to i64
  %26 = shl nsw i64 %25, 2
  %27 = tail call ptr @palloc(i64 noundef %26) #2
  %28 = getelementptr inbounds nuw i8, ptr %4, i64 208
  store ptr %27, ptr %28, align 8
  %29 = load ptr, ptr %13, align 8
  %30 = getelementptr inbounds nuw i8, ptr %29, i64 4
  %.not = icmp eq ptr %29, null
  br i1 %.not, label %._crit_edge, label %.lr.ph

.lr.ph:                                           ; preds = %list_length.exit
  %31 = getelementptr inbounds nuw i8, ptr %29, i64 16
  %32 = getelementptr inbounds nuw i8, ptr %4, i64 128
  %33 = load i32, ptr %30, align 4
  %34 = icmp sgt i32 %33, 0
  br i1 %34, label %.lr.ph53, label %._crit_edge

._crit_edge:                                      ; preds = %56, %.lr.ph, %list_length.exit
  %35 = load ptr, ptr @CurrentMemoryContext, align 8
  %36 = tail call ptr @AllocSetContextCreateInternal(ptr noundef %35, ptr noundef nonnull @.str, i64 noundef 0, i64 noundef 8192, i64 noundef 8388608) #2
  %37 = getelementptr inbounds nuw i8, ptr %4, i64 224
  store ptr %36, ptr %37, align 8
  ret ptr %4

.lr.ph53:                                         ; preds = %.lr.ph, %56
  %indvars.iv = phi i64 [ %indvars.iv.next, %56 ], [ 0, %.lr.ph ]
  %38 = load ptr, ptr %31, align 8
  %39 = getelementptr inbounds nuw %union.ListCell, ptr %38, i64 %indvars.iv
  %40 = load ptr, ptr %39, align 8
  %41 = getelementptr inbounds nuw i8, ptr %40, i64 8
  %42 = load ptr, ptr %41, align 8
  %43 = load i32, ptr %42, align 4
  switch i32 %43, label %.thread46 [
    i32 15, label %44
    i32 17, label %48
  ]

44:                                               ; preds = %.lr.ph53
  %45 = getelementptr inbounds nuw i8, ptr %42, i64 12
  %46 = load i8, ptr %45, align 4, !range !4, !noundef !5
  %47 = trunc nuw i8 %46 to i1
  br i1 %47, label %52, label %.thread46

48:                                               ; preds = %.lr.ph53
  %49 = getelementptr inbounds nuw i8, ptr %42, i64 16
  %50 = load i8, ptr %49, align 8, !range !4, !noundef !5
  %51 = trunc nuw i8 %50 to i1
  br i1 %51, label %52, label %.thread46

52:                                               ; preds = %48, %44
  %53 = load ptr, ptr %32, align 8
  %54 = tail call ptr @ExecInitFunctionResultSet(ptr noundef nonnull %42, ptr noundef %53, ptr noundef nonnull %4) #2
  br label %56

.thread46:                                        ; preds = %.lr.ph53, %44, %48
  %55 = tail call ptr @ExecInitExpr(ptr noundef nonnull %42, ptr noundef nonnull %4) #2
  br label %56

56:                                               ; preds = %.thread46, %52
  %.sink = phi ptr [ %55, %.thread46 ], [ %54, %52 ]
  %57 = load ptr, ptr %23, align 8
  %58 = getelementptr inbounds nuw ptr, ptr %57, i64 %indvars.iv
  store ptr %.sink, ptr %58, align 8
  %indvars.iv.next = add nuw nsw i64 %indvars.iv, 1
  %59 = load i32, ptr %30, align 4
  %60 = sext i32 %59 to i64
  %61 = icmp slt i64 %indvars.iv.next, %60
  br i1 %61, label %.lr.ph53, label %._crit_edge
}